Certificate:
    Data:
        Version: 3 (0x2)
        Serial Number: 4 (0x4)
    Signature Algorithm: sha256WithRSAEncryption
        Issuer: C=CN, ST=HB, O=mine, OU=three, CN=thirdca.mine.com
        Validity
            Not Before: Jul 30 12:51:16 2019 GMT
            Not After : Jul 29 12:51:16 2020 GMT
        Subject: C=CN, ST=HB, O=mine, OU=server, CN=server.mine.com
        Subject Public Key Info:
            Public Key Algorithm: rsaEncryption
                Public-Key: (2048 bit)
                Modulus:
                    00:e7:ef:79:5a:31:fe:61:fd:89:83:b4:6a:b3:bf:
                    16:05:27:3a:ae:54:3b:bf:85:e4:67:98:79:8e:d5:
                    f0:a7:4b:dd:a0:f1:1f:fa:70:04:51:4a:d8:b2:8d:
                    4f:3e:0c:24:af:88:5c:a9:b7:2d:6f:5e:d0:8a:33:
                    44:58:b8:da:ed:5c:0f:71:0b:0b:53:98:80:2d:f1:
                    c4:d6:b6:c5:c5:70:a2:81:51:42:bd:b1:ee:de:42:
                    fc:08:75:5d:1a:84:37:37:0f:5c:c9:a4:b0:a3:eb:
                    27:f9:64:4b:45:6e:9e:b5:86:6a:24:48:93:6d:fa:
                    d6:38:2c:57:4a:3b:10:dd:8a:b1:e0:3c:bc:0c:95:
                    11:6c:de:44:e7:1b:c9:d1:10:53:f9:69:b0:3b:d1:
                    66:68:0c:76:a1:dd:12:37:00:ec:d0:0a:f1:4b:35:
                    9e:5c:4e:25:7c:d6:77:8a:ee:68:54:e4:4c:67:cf:
                    16:17:61:cc:48:21:a0:16:55:e2:3d:c4:bf:83:59:
                    96:21:cb:b9:b9:6a:4c:1f:58:1c:7e:db:2b:5c:a9:
                    25:ae:f1:72:9a:94:61:1a:f7:e2:94:97:bb:3d:21:
                    87:43:28:31:5f:4f:14:05:4f:47:b3:54:8b:63:13:
                    0e:00:26:e3:43:b8:3e:66:fd:b0:27:46:eb:65:37:
                    bb:3d
                Exponent: 65537 (0x10001)
        X509v3 extensions:
            X509v3 Basic Constraints: 
                CA:FALSE
            Netscape Comment: 
                OpenSSL Generated Certificate
            X509v3 Subject Key Identifier: 
                20:1E:02:91:4E:93:F6:F1:57:BB:9C:B2:B5:02:E8:98:18:78:FF:B4
            X509v3 Authority Key Identifier: 
                keyid:D1:92:1B:3E:1D:C8:A5:9A:41:99:61:74:E5:3C:0E:9F:6E:80:82:F2

    Signature Algorithm: sha256WithRSAEncryption
         14:6d:e3:56:f8:ce:f2:78:bd:9a:89:dc:d3:ab:02:fe:c8:04:
         c2:4a:2f:37:2d:67:82:cb:a0:4e:09:3a:34:e6:e0:b6:9c:1b:
         0e:90:a0:55:1a:07:43:13:74:c2:f7:a6:a2:c9:b7:6e:be:10:
         d0:15:8c:f5:4e:8a:f3:dc:f0:85:9b:b8:57:72:36:07:91:51:
         a5:a2:82:75:1d:f5:60:7c:3c:88:4e:d1:e2:ab:4a:7a:46:6d:
         c1:99:7a:a8:8e:ae:07:00:34:40:c8:74:e7:66:52:bf:a3:42:
         c9:bd:80:33:cd:1a:ff:b1:03:28:c6:0d:24:5c:d2:32:c1:75:
         36:3d:53:66:bc:f7:25:77:32:2c:24:6e:59:d0:14:b3:4e:8b:
         e9:2e:90:99:d4:72:2b:d3:c7:f6:20:b5:71:93:80:44:06:c0:
         76:e6:f1:a8:e8:41:08:87:61:68:9c:2d:cb:ac:b1:5a:ef:15:
         e3:66:72:c0:56:f5:71:38:4c:1d:62:ab:6b:cd:d9:a5:38:d5:
         84:8d:a2:63:e2:17:73:46:c5:4a:fe:d3:c1:db:54:2f:eb:67:
         f6:90:83:67:30:01:41:52:d3:f8:1b:61:b4:b0:7d:4a:bd:e1:
         92:cf:bf:05:24:cb:c5:30:24:f7:e0:b3:4f:fa:25:80:a0:42:
         6e:e0:f5:3a
-----BEGIN CERTIFICATE-----
MIIDnjCCAoagAwIBAgIBBDANBgkqhkiG9w0BAQsFADBUMQswCQYDVQQGEwJDTjEL
MAkGA1UECAwCSEIxDTALBgNVBAoMBG1pbmUxDjAMBgNVBAsMBXRocmVlMRkwFwYD
VQQDDBB0aGlyZGNhLm1pbmUuY29tMB4XDTE5MDczMDEyNTExNloXDTIwMDcyOTEy
NTExNlowVDELMAkGA1UEBhMCQ04xCzAJBgNVBAgMAkhCMQ0wCwYDVQQKDARtaW5l
MQ8wDQYDVQQLDAZzZXJ2ZXIxGDAWBgNVBAMMD3NlcnZlci5taW5lLmNvbTCCASIw
DQYJKoZIhvcNAQEBBQADggEPADCCAQoCggEBAOfveVox/mH9iYO0arO/FgUnOq5U
O7+F5GeYeY7V8KdL3aDxH/pwBFFK2LKNTz4MJK+IXKm3LW9e0IozRFi42u1cD3EL
C1OYgC3xxNa2xcVwooFRQr2x7t5C/Ah1XRqENzcPXMmksKPrJ/lkS0VunrWGaiRI
k2361jgsV0o7EN2KseA8vAyVEWzeROcbydEQU/lpsDvRZmgMdqHdEjcA7NAK8Us1
nlxOJXzWd4ruaFTkTGfPFhdhzEghoBZV4j3Ev4NZliHLublqTB9YHH7bK1ypJa7x
cpqUYRr34pSXuz0hh0MoMV9PFAVPR7NUi2MTDgAm40O4Pmb9sCdG62U3uz0CAwEA
AaN7MHkwCQYDVR0TBAIwADAsBglghkgBhvhCAQ0EHxYdT3BlblNTTCBHZW5lcmF0
ZWQgQ2VydGlmaWNhdGUwHQYDVR0OBBYEFCAeApFOk/bxV7ucsrUC6JgYeP+0MB8G
A1UdIwQYMBaAFNGSGz4dyKWaQZlhdOU8Dp9ugILyMA0GCSqGSIb3DQEBCwUAA4IB
AQAUbeNW+M7yeL2aidzTqwL+yATCSi83LWeCy6BOCTo05uC2nBsOkKBVGgdDE3TC
96aiybduvhDQFYz1Torz3PCFm7hXcjYHkVGlooJ1HfVgfDyITtHiq0p6Rm3BmXqo
jq4HADRAyHTnZlK/o0LJvYAzzRr/sQMoxg0kXNIywXU2PVNmvPcldzIsJG5Z0BSz
TovpLpCZ1HIr08f2ILVxk4BEBsB25vGo6EEIh2FonC3LrLFa7xXjZnLAVvVxOEwd
YqtrzdmlONWEjaJj4hdzRsVK/tPB21Qv62f2kINnMAFBUtP4G2G0sH1KveGSz78F
JMvFMCT34LNP+iWAoEJu4PU6
-----END CERTIFICATE-----
