Certificate:
    Data:
        Version: 3 (0x2)
        Serial Number: 5 (0x5)
    Signature Algorithm: sha256WithRSAEncryption
        Issuer: C=CN, ST=HB, O=mine, OU=self, CN=selfca.mine.com
        Validity
            Not Before: Jul 30 21:59:23 2019 GMT
            Not After : Jul 29 21:59:23 2020 GMT
        Subject: C=CN, ST=HB, O=mine, OU=self, CN=selfca.mine.com
        Subject Public Key Info:
            Public Key Algorithm: rsaEncryption
                Public-Key: (2048 bit)
                Modulus:
                    00:c4:25:b9:36:fd:19:13:43:48:23:2b:a7:8c:a5:
                    39:48:59:a8:b0:8b:a4:52:e5:94:49:a6:b6:09:11:
                    b9:ed:3d:91:69:37:70:64:f9:50:d7:12:f6:04:8a:
                    c6:2c:42:a1:f7:0b:5d:b4:6b:88:36:56:77:cf:e1:
                    04:d3:41:13:93:2f:79:7b:16:5a:58:a4:fd:40:72:
                    90:93:5a:05:cf:52:97:1b:87:45:a6:f5:ce:8b:05:
                    37:93:6a:d2:ef:9d:fe:55:38:60:42:c3:7a:98:d7:
                    f0:79:af:cf:63:fd:84:29:e8:33:96:42:a6:91:f1:
                    74:07:28:01:c1:26:b9:e3:44:df:9f:1d:ba:b7:19:
                    b2:e0:da:7a:e3:c4:28:75:61:cb:c4:33:47:c2:f8:
                    88:93:8c:cb:fc:ba:92:02:d0:31:43:c5:6e:92:ae:
                    01:23:1d:98:87:4a:c2:7d:09:fb:b4:78:1a:cd:80:
                    e6:42:7a:0e:62:e3:85:9d:41:db:fb:5f:a0:09:da:
                    9c:6b:c7:9c:36:34:3e:41:0e:05:f0:b2:b8:80:12:
                    a7:10:03:1d:6b:cc:81:69:28:6b:8d:e9:19:d7:40:
                    1d:da:f1:ff:bc:71:d6:fe:fa:e5:ee:5c:91:5b:dc:
                    f8:86:3a:f4:da:fc:23:8c:d5:d6:c3:7e:9f:ff:13:
                    e0:2d
                Exponent: 65537 (0x10001)
        X509v3 extensions:
            X509v3 Basic Constraints: 
                CA:FALSE
            Netscape Comment: 
                OpenSSL Generated Certificate
            X509v3 Subject Key Identifier: 
                38:F3:2E:B5:34:43:53:1A:AA:B8:33:06:88:E0:A9:98:C3:EF:E0:80
            X509v3 Authority Key Identifier: 
                keyid:38:F3:2E:B5:34:43:53:1A:AA:B8:33:06:88:E0:A9:98:C3:EF:E0:80

    Signature Algorithm: sha256WithRSAEncryption
         06:2e:a0:30:f7:b5:8c:9a:5b:6b:54:71:47:b7:2a:71:0a:a8:
         8b:a5:2d:30:00:2d:31:40:a1:da:2c:5d:df:a2:92:94:f4:01:
         70:1b:0c:be:02:76:f6:9a:1a:65:2b:e0:0e:83:35:f3:78:28:
         1d:1f:2d:94:da:37:0f:b9:ea:fd:bc:cd:f0:a9:12:96:89:c4:
         4e:cc:c0:00:3c:ac:0a:91:9d:83:42:60:7f:57:33:1e:3c:04:
         38:e2:5b:6a:ce:1e:23:23:6e:74:b7:6c:0a:30:3a:85:0d:e0:
         a4:08:9e:ee:14:82:30:4c:ab:47:09:fc:4f:26:a9:07:2d:0b:
         bb:2c:26:74:f4:2c:84:1f:3d:f1:10:fc:b4:17:34:11:40:32:
         30:58:ce:cc:60:10:a2:80:3d:66:f6:a8:02:67:b6:67:17:64:
         e4:42:3d:ca:35:f3:93:70:40:f1:b3:98:be:50:15:53:c0:e8:
         14:f3:35:39:38:62:e8:6f:8e:35:c6:66:67:28:85:38:c9:69:
         36:e4:0c:14:ee:a5:7f:ba:36:e2:c1:83:f3:b7:96:2a:08:8e:
         4e:65:b0:df:f1:5d:d8:62:c7:9f:78:86:d8:f7:76:df:b1:01:
         78:c0:34:59:dd:3d:50:c5:7a:59:1d:c5:eb:20:b2:3a:ef:13:
         73:42:c0:3b
-----BEGIN CERTIFICATE-----
MIIDmjCCAoKgAwIBAgIBBTANBgkqhkiG9w0BAQsFADBSMQswCQYDVQQGEwJDTjEL
MAkGA1UECAwCSEIxDTALBgNVBAoMBG1pbmUxDTALBgNVBAsMBHNlbGYxGDAWBgNV
BAMMD3NlbGZjYS5taW5lLmNvbTAeFw0xOTA3MzAyMTU5MjNaFw0yMDA3MjkyMTU5
MjNaMFIxCzAJBgNVBAYTAkNOMQswCQYDVQQIDAJIQjENMAsGA1UECgwEbWluZTEN
MAsGA1UECwwEc2VsZjEYMBYGA1UEAwwPc2VsZmNhLm1pbmUuY29tMIIBIjANBgkq
hkiG9w0BAQEFAAOCAQ8AMIIBCgKCAQEAxCW5Nv0ZE0NIIyunjKU5SFmosIukUuWU
Saa2CRG57T2RaTdwZPlQ1xL2BIrGLEKh9wtdtGuINlZ3z+EE00ETky95exZaWKT9
QHKQk1oFz1KXG4dFpvXOiwU3k2rS753+VThgQsN6mNfwea/PY/2EKegzlkKmkfF0
BygBwSa540Tfnx26txmy4Np648QodWHLxDNHwviIk4zL/LqSAtAxQ8Vukq4BIx2Y
h0rCfQn7tHgazYDmQnoOYuOFnUHb+1+gCdqca8ecNjQ+QQ4F8LK4gBKnEAMda8yB
aShrjekZ10Ad2vH/vHHW/vrl7lyRW9z4hjr02vwjjNXWw36f/xPgLQIDAQABo3sw
eTAJBgNVHRMEAjAAMCwGCWCGSAGG+EIBDQQfFh1PcGVuU1NMIEdlbmVyYXRlZCBD
ZXJ0aWZpY2F0ZTAdBgNVHQ4EFgQUOPMutTRDUxqquDMGiOCpmMPv4IAwHwYDVR0j
BBgwFoAUOPMutTRDUxqquDMGiOCpmMPv4IAwDQYJKoZIhvcNAQELBQADggEBAAYu
oDD3tYyaW2tUcUe3KnEKqIulLTAALTFAodosXd+ikpT0AXAbDL4CdvaaGmUr4A6D
NfN4KB0fLZTaNw+56v28zfCpEpaJxE7MwAA8rAqRnYNCYH9XMx48BDjiW2rOHiMj
bnS3bAowOoUN4KQInu4UgjBMq0cJ/E8mqQctC7ssJnT0LIQfPfEQ/LQXNBFAMjBY
zsxgEKKAPWb2qAJntmcXZORCPco185NwQPGzmL5QFVPA6BTzNTk4YuhvjjXGZmco
hTjJaTbkDBTupX+6NuLBg/O3lioIjk5lsN/xXdhix594htj3dt+xAXjANFndPVDF
elkdxesgsjrvE3NCwDs=
-----END CERTIFICATE-----
