Certificate:
    Data:
        Version: 3 (0x2)
        Serial Number: 3 (0x3)
    Signature Algorithm: sha256WithRSAEncryption
        Issuer: C=CN, ST=HB, O=mine, OU=two, CN=secondca.mine.com
        Validity
            Not Before: Jul 30 12:48:41 2019 GMT
            Not After : Jul 29 12:48:41 2020 GMT
        Subject: C=CN, ST=HB, O=mine, OU=three, CN=thirdca.mine.com
        Subject Public Key Info:
            Public Key Algorithm: rsaEncryption
                Public-Key: (2048 bit)
                Modulus:
                    00:ab:d1:17:82:25:14:b7:5b:ae:2e:73:a3:65:eb:
                    2a:a3:a6:eb:54:6a:1b:7e:e5:aa:e7:0f:9a:31:ee:
                    fd:e3:e9:84:13:07:be:53:fc:7f:1e:57:45:b4:c9:
                    de:8a:62:23:14:fd:bf:c3:7d:be:59:bd:e1:18:66:
                    74:60:fb:0c:ed:7c:d8:a2:a8:c8:aa:66:fe:b2:1d:
                    31:53:29:6e:24:64:7b:b0:cc:68:4c:22:66:07:22:
                    e8:e5:66:4a:fe:56:35:16:f2:35:0c:f5:08:74:98:
                    84:a7:19:bc:44:99:0f:ed:64:8a:f9:ef:00:fc:75:
                    ba:95:83:0b:95:35:ca:70:83:50:7f:ef:ff:4f:ef:
                    d4:22:a8:49:08:84:38:4e:d0:72:3e:82:cd:7a:e1:
                    52:94:c3:42:eb:06:9d:4a:5f:fd:54:b9:a5:e4:60:
                    dc:0d:95:d0:ab:bc:b1:00:4d:55:9c:30:85:af:6e:
                    6d:14:98:d4:34:a1:2c:10:a5:cb:82:8a:5f:ab:35:
                    9f:90:c6:a4:6b:70:58:9c:f0:fb:0d:8b:5a:01:80:
                    46:6d:af:eb:14:65:26:68:1a:19:04:3d:3d:02:e3:
                    54:b8:5e:f1:28:e7:be:5e:d0:23:e2:e3:02:ec:91:
                    86:89:0a:c5:3e:99:0b:16:41:c3:3a:72:67:56:13:
                    b8:2b
                Exponent: 65537 (0x10001)
        X509v3 extensions:
            X509v3 Subject Key Identifier: 
                D1:92:1B:3E:1D:C8:A5:9A:41:99:61:74:E5:3C:0E:9F:6E:80:82:F2
            X509v3 Authority Key Identifier: 
                keyid:97:A0:FB:73:75:07:3B:E0:CB:5C:31:C5:FC:99:3A:A6:EA:F2:6D:17

            X509v3 Basic Constraints: 
                CA:TRUE
    Signature Algorithm: sha256WithRSAEncryption
         14:59:0a:99:92:cb:ce:ea:95:f6:64:07:73:bb:43:3d:31:cd:
         c9:25:e5:bd:fc:07:bc:d3:b0:8b:33:90:95:ce:33:71:9f:bc:
         5a:92:e1:8c:26:c1:6f:30:85:c7:2d:77:bc:9c:e7:82:3b:40:
         73:e3:46:a2:11:b0:4c:41:d7:f7:e0:96:34:ee:3c:32:6e:6a:
         22:ec:59:9b:77:e3:00:c4:04:07:22:e1:f2:cc:4c:2f:45:b5:
         c9:c7:de:1e:3b:9c:df:c3:79:3c:25:00:7f:8d:43:ca:a8:2c:
         47:46:5e:67:64:5e:b3:4a:e0:cb:93:8c:3f:2f:26:8b:63:04:
         ab:08:b3:e3:9b:b7:1f:77:07:74:10:6e:b2:b5:ef:84:f3:ce:
         45:f1:b8:9e:9d:27:53:dd:30:84:11:7c:55:0c:d0:79:4e:e1:
         f2:de:33:13:25:fe:c4:ac:26:f3:c5:56:fe:bf:c1:1e:24:80:
         f1:b7:5c:11:4e:3c:8d:96:e1:25:90:0d:31:21:9b:06:b3:41:
         0d:fc:f0:b3:9f:ef:91:e5:4c:b6:60:b1:a1:b0:58:af:d0:80:
         8d:cf:8d:78:25:ad:95:2d:53:88:77:cb:e4:f5:7c:5c:fb:7a:
         07:61:99:c4:e9:c0:75:4b:e9:0f:3e:8b:9c:8d:08:e1:55:6a:
         21:00:e8:4b
-----BEGIN CERTIFICATE-----
MIIDcjCCAlqgAwIBAgIBAzANBgkqhkiG9w0BAQsFADBTMQswCQYDVQQGEwJDTjEL
MAkGA1UECAwCSEIxDTALBgNVBAoMBG1pbmUxDDAKBgNVBAsMA3R3bzEaMBgGA1UE
AwwRc2Vjb25kY2EubWluZS5jb20wHhcNMTkwNzMwMTI0ODQxWhcNMjAwNzI5MTI0
ODQxWjBUMQswCQYDVQQGEwJDTjELMAkGA1UECAwCSEIxDTALBgNVBAoMBG1pbmUx
DjAMBgNVBAsMBXRocmVlMRkwFwYDVQQDDBB0aGlyZGNhLm1pbmUuY29tMIIBIjAN
BgkqhkiG9w0BAQEFAAOCAQ8AMIIBCgKCAQEAq9EXgiUUt1uuLnOjZesqo6brVGob
fuWq5w+aMe794+mEEwe+U/x/HldFtMneimIjFP2/w32+Wb3hGGZ0YPsM7XzYoqjI
qmb+sh0xUyluJGR7sMxoTCJmByLo5WZK/lY1FvI1DPUIdJiEpxm8RJkP7WSK+e8A
/HW6lYMLlTXKcINQf+//T+/UIqhJCIQ4TtByPoLNeuFSlMNC6wadSl/9VLml5GDc
DZXQq7yxAE1VnDCFr25tFJjUNKEsEKXLgopfqzWfkMaka3BYnPD7DYtaAYBGba/r
FGUmaBoZBD09AuNUuF7xKOe+XtAj4uMC7JGGiQrFPpkLFkHDOnJnVhO4KwIDAQAB
o1AwTjAdBgNVHQ4EFgQU0ZIbPh3IpZpBmWF05TwOn26AgvIwHwYDVR0jBBgwFoAU
l6D7c3UHO+DLXDHF/Jk6purybRcwDAYDVR0TBAUwAwEB/zANBgkqhkiG9w0BAQsF
AAOCAQEAFFkKmZLLzuqV9mQHc7tDPTHNySXlvfwHvNOwizOQlc4zcZ+8WpLhjCbB
bzCFxy13vJzngjtAc+NGohGwTEHX9+CWNO48Mm5qIuxZm3fjAMQEByLh8sxML0W1
ycfeHjuc38N5PCUAf41DyqgsR0ZeZ2Res0rgy5OMPy8mi2MEqwiz45u3H3cHdBBu
srXvhPPORfG4np0nU90whBF8VQzQeU7h8t4zEyX+xKwm88VW/r/BHiSA8bdcEU48
jZbhJZANMSGbBrNBDfzws5/vkeVMtmCxobBYr9CAjc+NeCWtlS1TiHfL5PV8XPt6
B2GZxOnAdUvpDz6LnI0I4VVqIQDoSw==
-----END CERTIFICATE-----
