Certificate:
    Data:
        Version: 3 (0x2)
        Serial Number: 2 (0x2)
    Signature Algorithm: sha256WithRSAEncryption
        Issuer: C=CN, ST=HB, O=mine, OU=oneCA, CN=firstca.mine.com
        Validity
            Not Before: Jul 30 12:45:56 2019 GMT
            Not After : Jul 29 12:45:56 2020 GMT
        Subject: C=CN, ST=HB, O=mine, OU=two, CN=secondca.mine.com
        Subject Public Key Info:
            Public Key Algorithm: rsaEncryption
                Public-Key: (2048 bit)
                Modulus:
                    00:c3:c2:24:5b:fc:8c:57:e4:98:fd:a4:75:d3:f6:
                    5b:56:5e:3b:87:3c:90:a7:2e:ae:f5:d8:e1:a2:f8:
                    7f:98:0b:af:e8:67:28:18:b5:51:97:e5:43:bc:96:
                    ba:71:95:fa:f7:bb:48:f3:e6:54:b4:cc:dc:de:bb:
                    d3:99:08:a5:d6:3f:e8:53:8c:95:3c:96:d6:e4:43:
                    9c:d8:95:3b:bd:94:77:6a:e1:10:8a:9b:38:b7:e6:
                    a4:2d:8c:60:0e:29:bf:a1:3f:05:15:7d:f4:28:56:
                    95:e5:66:8c:50:7b:88:88:75:e1:c8:50:b7:b9:e5:
                    ba:9e:bc:2c:70:bd:a5:b1:0f:c2:97:0b:45:6f:62:
                    4b:5e:12:fb:6d:f8:44:30:00:18:c8:06:93:a6:28:
                    ae:08:dd:89:48:8e:b9:2c:e2:d0:78:8d:ef:f4:29:
                    9f:47:c8:e8:ad:ff:d1:2a:b4:69:e9:4e:97:6e:e8:
                    83:34:86:87:f1:a3:e7:78:15:9f:a0:e7:74:62:98:
                    6f:40:33:a4:a5:16:61:40:6f:ff:02:c9:0b:b6:b3:
                    ff:fe:4d:f7:58:0d:eb:2d:ce:9f:cc:5f:e0:42:31:
                    97:ac:1d:96:47:7b:f2:ed:b8:1c:1a:9d:49:bc:c4:
                    d5:e8:82:1e:6f:3d:00:b2:9c:a4:82:4c:85:92:d9:
                    29:99
                Exponent: 65537 (0x10001)
        X509v3 extensions:
            X509v3 Subject Key Identifier: 
                97:A0:FB:73:75:07:3B:E0:CB:5C:31:C5:FC:99:3A:A6:EA:F2:6D:17
            X509v3 Authority Key Identifier: 
                keyid:8F:85:41:D1:CB:FD:CF:FD:70:5D:C1:55:74:00:E6:C4:63:27:E7:03

            X509v3 Basic Constraints: 
                CA:TRUE
    Signature Algorithm: sha256WithRSAEncryption
         92:f3:e2:6c:56:91:97:4b:da:0e:ab:9a:fb:b7:13:3e:fd:3e:
         ef:6c:86:db:c2:40:22:58:cb:88:de:43:df:f4:a5:9a:78:23:
         f5:2e:35:9a:10:1f:b9:28:92:ce:c8:e5:2a:a5:10:01:13:37:
         27:e4:66:44:cf:50:90:a0:3d:5b:f7:dc:8e:e6:13:ee:2d:92:
         8c:65:73:12:49:9b:61:9f:b9:0f:42:ad:8b:89:8a:a6:a6:5f:
         0d:f0:9b:40:e6:c4:52:ec:97:8f:67:62:44:2f:37:e5:7b:be:
         34:5a:cb:06:9b:fb:8f:51:8a:4c:b4:55:72:61:4a:60:4a:8f:
         00:08:22:73:48:89:bd:d6:5a:9c:d3:eb:eb:c9:a0:99:95:b4:
         83:1d:8f:d7:a3:41:d8:f4:cf:08:9a:99:c7:ea:f0:d8:c6:65:
         7a:ec:85:c2:ce:b5:53:c0:f4:2c:c7:9e:b6:83:01:dc:6c:29:
         b1:ad:bd:79:64:23:ba:1b:8c:ed:fc:3f:d1:8a:0e:85:2d:f7:
         f1:ba:44:c8:a6:f5:71:f0:da:ed:f3:ea:c5:5f:53:a5:09:cc:
         d8:a5:6c:c8:e3:b9:20:b9:ee:6b:f1:04:ed:20:8a:40:cc:5c:
         35:43:73:5f:c2:73:7c:96:6b:8e:b9:1a:f8:90:44:68:0a:d8:
         85:d1:95:7f
-----BEGIN CERTIFICATE-----
MIIDcjCCAlqgAwIBAgIBAjANBgkqhkiG9w0BAQsFADBUMQswCQYDVQQGEwJDTjEL
MAkGA1UECAwCSEIxDTALBgNVBAoMBG1pbmUxDjAMBgNVBAsMBW9uZUNBMRkwFwYD
VQQDDBBmaXJzdGNhLm1pbmUuY29tMB4XDTE5MDczMDEyNDU1NloXDTIwMDcyOTEy
NDU1NlowUzELMAkGA1UEBhMCQ04xCzAJBgNVBAgMAkhCMQ0wCwYDVQQKDARtaW5l
MQwwCgYDVQQLDAN0d28xGjAYBgNVBAMMEXNlY29uZGNhLm1pbmUuY29tMIIBIjAN
BgkqhkiG9w0BAQEFAAOCAQ8AMIIBCgKCAQEAw8IkW/yMV+SY/aR10/ZbVl47hzyQ
py6u9djhovh/mAuv6GcoGLVRl+VDvJa6cZX697tI8+ZUtMzc3rvTmQil1j/oU4yV
PJbW5EOc2JU7vZR3auEQips4t+akLYxgDim/oT8FFX30KFaV5WaMUHuIiHXhyFC3
ueW6nrwscL2lsQ/ClwtFb2JLXhL7bfhEMAAYyAaTpiiuCN2JSI65LOLQeI3v9Cmf
R8jorf/RKrRp6U6XbuiDNIaH8aPneBWfoOd0YphvQDOkpRZhQG//AskLtrP//k33
WA3rLc6fzF/gQjGXrB2WR3vy7bgcGp1JvMTV6IIebz0AspykgkyFktkpmQIDAQAB
o1AwTjAdBgNVHQ4EFgQUl6D7c3UHO+DLXDHF/Jk6purybRcwHwYDVR0jBBgwFoAU
j4VB0cv9z/1wXcFVdADmxGMn5wMwDAYDVR0TBAUwAwEB/zANBgkqhkiG9w0BAQsF
AAOCAQEAkvPibFaRl0vaDqua+7cTPv0+72yG28JAIljLiN5D3/Slmngj9S41mhAf
uSiSzsjlKqUQARM3J+RmRM9QkKA9W/fcjuYT7i2SjGVzEkmbYZ+5D0Kti4mKpqZf
DfCbQObEUuyXj2diRC835Xu+NFrLBpv7j1GKTLRVcmFKYEqPAAgic0iJvdZanNPr
68mgmZW0gx2P16NB2PTPCJqZx+rw2MZleuyFws61U8D0LMeetoMB3Gwpsa29eWQj
uhuM7fw/0YoOhS338bpEyKb1cfDa7fPqxV9TpQnM2KVsyOO5ILnua/EE7SCKQMxc
NUNzX8JzfJZrjrka+JBEaArYhdGVfw==
-----END CERTIFICATE-----
