Certificate:
    Data:
        Version: 3 (0x2)
        Serial Number: 3 (0x3)
    Signature Algorithm: sha256WithRSAEncryption
        Issuer: C=CN, ST=HB, O=mine, OU=two, CN=secondca.mine.com
        Validity
            Not Before: Jul 30 12:48:41 2019 GMT
            Not After : Jul 29 12:48:41 2020 GMT
        Subject: C=CN, ST=HB, O=mine, OU=three, CN=thirdca.mine.com
        Subject Public Key Info:
            Public Key Algorithm: rsaEncryption
                Public-Key: (2048 bit)
                Modulus:
                    00:ab:d1:17:82:25:14:b7:5b:ae:2e:73:a3:65:eb:
                    2a:a3:a6:eb:54:6a:1b:7e:e5:aa:e7:0f:9a:31:ee:
                    fd:e3:e9:84:13:07:be:53:fc:7f:1e:57:45:b4:c9:
                    de:8a:62:23:14:fd:bf:c3:7d:be:59:bd:e1:18:66:
                    74:60:fb:0c:ed:7c:d8:a2:a8:c8:aa:66:fe:b2:1d:
                    31:53:29:6e:24:64:7b:b0:cc:68:4c:22:66:07:22:
                    e8:e5:66:4a:fe:56:35:16:f2:35:0c:f5:08:74:98:
                    84:a7:19:bc:44:99:0f:ed:64:8a:f9:ef:00:fc:75:
                    ba:95:83:0b:95:35:ca:70:83:50:7f:ef:ff:4f:ef:
                    d4:22:a8:49:08:84:38:4e:d0:72:3e:82:cd:7a:e1:
                    52:94:c3:42:eb:06:9d:4a:5f:fd:54:b9:a5:e4:60:
                    dc:0d:95:d0:ab:bc:b1:00:4d:55:9c:30:85:af:6e:
                    6d:14:98:d4:34:a1:2c:10:a5:cb:82:8a:5f:ab:35:
                    9f:90:c6:a4:6b:70:58:9c:f0:fb:0d:8b:5a:01:80:
                    46:6d:af:eb:14:65:26:68:1a:19:04:3d:3d:02:e3:
                    54:b8:5e:f1:28:e7:be:5e:d0:23:e2:e3:02:ec:91:
                    86:89:0a:c5:3e:99:0b:16:41:c3:3a:72:67:56:13:
                    b8:2b
                Exponent: 65537 (0x10001)
        X509v3 extensions:
            X509v3 Subject Key Identifier: 
                D1:92:1B:3E:1D:C8:A5:9A:41:99:61:74:E5:3C:0E:9F:6E:80:82:F2
            X509v3 Authority Key Identifier: 
                keyid:97:A0:FB:73:75:07:3B:E0:CB:5C:31:C5:FC:99:3A:A6:EA:F2:6D:17

            X509v3 Basic Constraints: 
                CA:TRUE
    Signature Algorithm: sha256WithRSAEncryption
         14:59:0a:99:92:cb:ce:ea:95:f6:64:07:73:bb:43:3d:31:cd:
         c9:25:e5:bd:fc:07:bc:d3:b0:8b:33:90:95:ce:33:71:9f:bc:
         5a:92:e1:8c:26:c1:6f:30:85:c7:2d:77:bc:9c:e7:82:3b:40:
         73:e3:46:a2:11:b0:4c:41:d7:f7:e0:96:34:ee:3c:32:6e:6a:
         22:ec:59:9b:77:e3:00:c4:04:07:22:e1:f2:cc:4c:2f:45:b5:
         c9:c7:de:1e:3b:9c:df:c3:79:3c:25:00:7f:8d:43:ca:a8:2c:
         47:46:5e:67:64:5e:b3:4a:e0:cb:93:8c:3f:2f:26:8b:63:04:
         ab:08:b3:e3:9b:b7:1f:77:07:74:10:6e:b2:b5:ef:84:f3:ce:
         45:f1:b8:9e:9d:27:53:dd:30:84:11:7c:55:0c:d0:79:4e:e1:
         f2:de:33:13:25:fe:c4:ac:26:f3:c5:56:fe:bf:c1:1e:24:80:
         f1:b7:5c:11:4e:3c:8d:96:e1:25:90:0d:31:21:9b:06:b3:41:
         0d:fc:f0:b3:9f:ef:91:e5:4c:b6:60:b1:a1:b0:58:af:d0:80:
         8d:cf:8d:78:25:ad:95:2d:53:88:77:cb:e4:f5:7c:5c:fb:7a:
         07:61:99:c4:e9:c0:75:4b:e9:0f:3e:8b:9c:8d:08:e1:55:6a:
         21:00:e8:4b
-----BEGIN CERTIFICATE-----
MIIDcjCCAlqgAwIBAgIBAzANBgkqhkiG9w0BAQsFADBTMQswCQYDVQQGEwJDTjEL
MAkGA1UECAwCSEIxDTALBgNVBAoMBG1pbmUxDDAKBgNVBAsMA3R3bzEaMBgGA1UE
AwwRc2Vjb25kY2EubWluZS5jb20wHhcNMTkwNzMwMTI0ODQxWhcNMjAwNzI5MTI0
ODQxWjBUMQswCQYDVQQGEwJDTjELMAkGA1UECAwCSEIxDTALBgNVBAoMBG1pbmUx
DjAMBgNVBAsMBXRocmVlMRkwFwYDVQQDDBB0aGlyZGNhLm1pbmUuY29tMIIBIjAN
BgkqhkiG9w0BAQEFAAOCAQ8AMIIBCgKCAQEAq9EXgiUUt1uuLnOjZesqo6brVGob
fuWq5w+aMe794+mEEwe+U/x/HldFtMneimIjFP2/w32+Wb3hGGZ0YPsM7XzYoqjI
qmb+sh0xUyluJGR7sMxoTCJmByLo5WZK/lY1FvI1DPUIdJiEpxm8RJkP7WSK+e8A
/HW6lYMLlTXKcINQf+//T+/UIqhJCIQ4TtByPoLNeuFSlMNC6wadSl/9VLml5GDc
DZXQq7yxAE1VnDCFr25tFJjUNKEsEKXLgopfqzWfkMaka3BYnPD7DYtaAYBGba/r
FGUmaBoZBD09AuNUuF7xKOe+XtAj4uMC7JGGiQrFPpkLFkHDOnJnVhO4KwIDAQAB
o1AwTjAdBgNVHQ4EFgQU0ZIbPh3IpZpBmWF05TwOn26AgvIwHwYDVR0jBBgwFoAU
l6D7c3UHO+DLXDHF/Jk6purybRcwDAYDVR0TBAUwAwEB/zANBgkqhkiG9w0BAQsF
AAOCAQEAFFkKmZLLzuqV9mQHc7tDPTHNySXlvfwHvNOwizOQlc4zcZ+8WpLhjCbB
bzCFxy13vJzngjtAc+NGohGwTEHX9+CWNO48Mm5qIuxZm3fjAMQEByLh8sxML0W1
ycfeHjuc38N5PCUAf41DyqgsR0ZeZ2Res0rgy5OMPy8mi2MEqwiz45u3H3cHdBBu
srXvhPPORfG4np0nU90whBF8VQzQeU7h8t4zEyX+xKwm88VW/r/BHiSA8bdcEU48
jZbhJZANMSGbBrNBDfzws5/vkeVMtmCxobBYr9CAjc+NeCWtlS1TiHfL5PV8XPt6
B2GZxOnAdUvpDz6LnI0I4VVqIQDoSw==
-----END CERTIFICATE-----
Certificate:
    Data:
        Version: 3 (0x2)
        Serial Number: 2 (0x2)
    Signature Algorithm: sha256WithRSAEncryption
        Issuer: C=CN, ST=HB, O=mine, OU=oneCA, CN=firstca.mine.com
        Validity
            Not Before: Jul 30 12:45:56 2019 GMT
            Not After : Jul 29 12:45:56 2020 GMT
        Subject: C=CN, ST=HB, O=mine, OU=two, CN=secondca.mine.com
        Subject Public Key Info:
            Public Key Algorithm: rsaEncryption
                Public-Key: (2048 bit)
                Modulus:
                    00:c3:c2:24:5b:fc:8c:57:e4:98:fd:a4:75:d3:f6:
                    5b:56:5e:3b:87:3c:90:a7:2e:ae:f5:d8:e1:a2:f8:
                    7f:98:0b:af:e8:67:28:18:b5:51:97:e5:43:bc:96:
                    ba:71:95:fa:f7:bb:48:f3:e6:54:b4:cc:dc:de:bb:
                    d3:99:08:a5:d6:3f:e8:53:8c:95:3c:96:d6:e4:43:
                    9c:d8:95:3b:bd:94:77:6a:e1:10:8a:9b:38:b7:e6:
                    a4:2d:8c:60:0e:29:bf:a1:3f:05:15:7d:f4:28:56:
                    95:e5:66:8c:50:7b:88:88:75:e1:c8:50:b7:b9:e5:
                    ba:9e:bc:2c:70:bd:a5:b1:0f:c2:97:0b:45:6f:62:
                    4b:5e:12:fb:6d:f8:44:30:00:18:c8:06:93:a6:28:
                    ae:08:dd:89:48:8e:b9:2c:e2:d0:78:8d:ef:f4:29:
                    9f:47:c8:e8:ad:ff:d1:2a:b4:69:e9:4e:97:6e:e8:
                    83:34:86:87:f1:a3:e7:78:15:9f:a0:e7:74:62:98:
                    6f:40:33:a4:a5:16:61:40:6f:ff:02:c9:0b:b6:b3:
                    ff:fe:4d:f7:58:0d:eb:2d:ce:9f:cc:5f:e0:42:31:
                    97:ac:1d:96:47:7b:f2:ed:b8:1c:1a:9d:49:bc:c4:
                    d5:e8:82:1e:6f:3d:00:b2:9c:a4:82:4c:85:92:d9:
                    29:99
                Exponent: 65537 (0x10001)
        X509v3 extensions:
            X509v3 Subject Key Identifier: 
                97:A0:FB:73:75:07:3B:E0:CB:5C:31:C5:FC:99:3A:A6:EA:F2:6D:17
            X509v3 Authority Key Identifier: 
                keyid:8F:85:41:D1:CB:FD:CF:FD:70:5D:C1:55:74:00:E6:C4:63:27:E7:03

            X509v3 Basic Constraints: 
                CA:TRUE
    Signature Algorithm: sha256WithRSAEncryption
         92:f3:e2:6c:56:91:97:4b:da:0e:ab:9a:fb:b7:13:3e:fd:3e:
         ef:6c:86:db:c2:40:22:58:cb:88:de:43:df:f4:a5:9a:78:23:
         f5:2e:35:9a:10:1f:b9:28:92:ce:c8:e5:2a:a5:10:01:13:37:
         27:e4:66:44:cf:50:90:a0:3d:5b:f7:dc:8e:e6:13:ee:2d:92:
         8c:65:73:12:49:9b:61:9f:b9:0f:42:ad:8b:89:8a:a6:a6:5f:
         0d:f0:9b:40:e6:c4:52:ec:97:8f:67:62:44:2f:37:e5:7b:be:
         34:5a:cb:06:9b:fb:8f:51:8a:4c:b4:55:72:61:4a:60:4a:8f:
         00:08:22:73:48:89:bd:d6:5a:9c:d3:eb:eb:c9:a0:99:95:b4:
         83:1d:8f:d7:a3:41:d8:f4:cf:08:9a:99:c7:ea:f0:d8:c6:65:
         7a:ec:85:c2:ce:b5:53:c0:f4:2c:c7:9e:b6:83:01:dc:6c:29:
         b1:ad:bd:79:64:23:ba:1b:8c:ed:fc:3f:d1:8a:0e:85:2d:f7:
         f1:ba:44:c8:a6:f5:71:f0:da:ed:f3:ea:c5:5f:53:a5:09:cc:
         d8:a5:6c:c8:e3:b9:20:b9:ee:6b:f1:04:ed:20:8a:40:cc:5c:
         35:43:73:5f:c2:73:7c:96:6b:8e:b9:1a:f8:90:44:68:0a:d8:
         85:d1:95:7f
-----BEGIN CERTIFICATE-----
MIIDcjCCAlqgAwIBAgIBAjANBgkqhkiG9w0BAQsFADBUMQswCQYDVQQGEwJDTjEL
MAkGA1UECAwCSEIxDTALBgNVBAoMBG1pbmUxDjAMBgNVBAsMBW9uZUNBMRkwFwYD
VQQDDBBmaXJzdGNhLm1pbmUuY29tMB4XDTE5MDczMDEyNDU1NloXDTIwMDcyOTEy
NDU1NlowUzELMAkGA1UEBhMCQ04xCzAJBgNVBAgMAkhCMQ0wCwYDVQQKDARtaW5l
MQwwCgYDVQQLDAN0d28xGjAYBgNVBAMMEXNlY29uZGNhLm1pbmUuY29tMIIBIjAN
BgkqhkiG9w0BAQEFAAOCAQ8AMIIBCgKCAQEAw8IkW/yMV+SY/aR10/ZbVl47hzyQ
py6u9djhovh/mAuv6GcoGLVRl+VDvJa6cZX697tI8+ZUtMzc3rvTmQil1j/oU4yV
PJbW5EOc2JU7vZR3auEQips4t+akLYxgDim/oT8FFX30KFaV5WaMUHuIiHXhyFC3
ueW6nrwscL2lsQ/ClwtFb2JLXhL7bfhEMAAYyAaTpiiuCN2JSI65LOLQeI3v9Cmf
R8jorf/RKrRp6U6XbuiDNIaH8aPneBWfoOd0YphvQDOkpRZhQG//AskLtrP//k33
WA3rLc6fzF/gQjGXrB2WR3vy7bgcGp1JvMTV6IIebz0AspykgkyFktkpmQIDAQAB
o1AwTjAdBgNVHQ4EFgQUl6D7c3UHO+DLXDHF/Jk6purybRcwHwYDVR0jBBgwFoAU
j4VB0cv9z/1wXcFVdADmxGMn5wMwDAYDVR0TBAUwAwEB/zANBgkqhkiG9w0BAQsF
AAOCAQEAkvPibFaRl0vaDqua+7cTPv0+72yG28JAIljLiN5D3/Slmngj9S41mhAf
uSiSzsjlKqUQARM3J+RmRM9QkKA9W/fcjuYT7i2SjGVzEkmbYZ+5D0Kti4mKpqZf
DfCbQObEUuyXj2diRC835Xu+NFrLBpv7j1GKTLRVcmFKYEqPAAgic0iJvdZanNPr
68mgmZW0gx2P16NB2PTPCJqZx+rw2MZleuyFws61U8D0LMeetoMB3Gwpsa29eWQj
uhuM7fw/0YoOhS338bpEyKb1cfDa7fPqxV9TpQnM2KVsyOO5ILnua/EE7SCKQMxc
NUNzX8JzfJZrjrka+JBEaArYhdGVfw==
-----END CERTIFICATE-----
Certificate:
    Data:
        Version: 3 (0x2)
        Serial Number: 1 (0x1)
    Signature Algorithm: sha256WithRSAEncryption
        Issuer: C=CN, ST=HB, L=WH, O=mine, OU=net, CN=ca.mine.com/emailAddress=c@163.com
        Validity
            Not Before: Jul 30 12:39:17 2019 GMT
            Not After : Jul 29 12:39:17 2020 GMT
        Subject: C=CN, ST=HB, O=mine, OU=oneCA, CN=firstca.mine.com
        Subject Public Key Info:
            Public Key Algorithm: rsaEncryption
                Public-Key: (2048 bit)
                Modulus:
                    00:d9:7a:f8:89:c9:08:3f:df:c9:c2:d7:39:b3:12:
                    61:a4:d2:16:29:26:2d:4a:c8:8f:84:e5:de:d3:3a:
                    3b:47:7c:9c:36:2d:bd:81:37:0c:ec:fb:85:17:35:
                    c5:3a:6a:8b:d0:a3:f3:ea:f1:d2:2f:f1:95:18:6e:
                    67:d2:61:bf:7c:2b:44:11:47:32:26:f7:84:cd:be:
                    cf:45:fb:58:a3:a7:18:cf:ea:6b:a1:4d:13:98:b9:
                    4d:a1:e8:05:93:e0:e8:b6:53:e8:a4:50:a2:6b:82:
                    1a:91:a7:dd:cd:e6:1e:8a:c5:e7:ea:ba:f5:cb:22:
                    22:0b:8c:96:f6:14:98:7c:d1:bf:c7:2b:74:30:7e:
                    b5:68:f2:fa:3d:b6:89:ee:82:7e:1d:d3:53:6b:b7:
                    17:ac:37:da:6a:a5:bb:d6:8a:3d:fe:20:20:29:38:
                    94:b3:29:47:ed:57:2d:7f:ba:d0:1b:42:b0:92:74:
                    5b:4e:a7:38:2d:28:b5:6b:d8:b0:9b:6b:64:65:ce:
                    b3:d8:b3:28:a5:29:0a:0d:a4:b5:fa:b0:9a:3e:c8:
                    00:dd:54:3e:43:e2:23:8e:de:dc:21:bb:51:17:58:
                    ac:c4:65:80:b5:9a:5d:9e:42:71:8a:b5:ab:73:fd:
                    17:b6:17:aa:be:1f:12:75:fb:f7:20:da:28:2f:f0:
                    28:ed
                Exponent: 65537 (0x10001)
        X509v3 extensions:
            X509v3 Subject Key Identifier: 
                8F:85:41:D1:CB:FD:CF:FD:70:5D:C1:55:74:00:E6:C4:63:27:E7:03
            X509v3 Authority Key Identifier: 
                keyid:38:F3:2E:B5:34:43:53:1A:AA:B8:33:06:88:E0:A9:98:C3:EF:E0:80

            X509v3 Basic Constraints: 
                CA:TRUE
    Signature Algorithm: sha256WithRSAEncryption
         36:26:d8:1f:5c:28:53:da:e4:ca:2b:bd:1f:c9:53:a5:15:87:
         32:c6:77:02:f0:5f:09:82:13:7e:d4:9c:6c:4a:4c:49:51:76:
         d4:af:1e:91:e6:6f:f7:a1:20:e6:e6:3f:f6:a1:2a:e3:50:ae:
         62:9b:10:ab:fc:53:54:84:f9:ec:17:23:21:d2:d1:ba:36:ff:
         eb:f6:47:0c:e6:71:05:58:26:36:fa:e8:50:1d:18:69:b4:6d:
         40:89:ba:d4:c2:c2:7e:20:5c:ad:2a:36:d9:68:0e:e2:30:16:
         07:1f:6a:9c:ab:a2:fa:29:eb:40:53:b9:f1:eb:99:a9:7e:fa:
         b5:55:eb:30:32:2a:7e:bb:d8:d6:6b:dc:30:80:22:16:74:c3:
         8f:c7:1d:5a:34:b3:51:5a:f4:ab:b8:8e:f1:65:6f:ce:61:61:
         b7:00:68:a5:31:32:24:e1:d2:f0:48:a8:af:d6:e8:fe:83:0a:
         c8:44:29:49:6d:44:43:36:2f:e4:80:6b:dd:33:1b:11:e0:ec:
         ac:31:f6:b9:50:44:a9:f8:df:e0:97:49:30:82:66:f4:e4:c5:
         85:e8:4b:2c:6a:91:8d:17:2d:8e:3c:9d:7b:d7:a8:46:a5:f5:
         1e:4c:3b:a9:73:6d:cf:b5:85:73:2b:6c:51:b0:80:e7:df:12:
         03:4c:f6:9a
-----BEGIN CERTIFICATE-----
MIIDkzCCAnugAwIBAgIBATANBgkqhkiG9w0BAQsFADB0MQswCQYDVQQGEwJDTjEL
MAkGA1UECAwCSEIxCzAJBgNVBAcMAldIMQ0wCwYDVQQKDARtaW5lMQwwCgYDVQQL
DANuZXQxFDASBgNVBAMMC2NhLm1pbmUuY29tMRgwFgYJKoZIhvcNAQkBFgljQDE2
My5jb20wHhcNMTkwNzMwMTIzOTE3WhcNMjAwNzI5MTIzOTE3WjBUMQswCQYDVQQG
EwJDTjELMAkGA1UECAwCSEIxDTALBgNVBAoMBG1pbmUxDjAMBgNVBAsMBW9uZUNB
MRkwFwYDVQQDDBBmaXJzdGNhLm1pbmUuY29tMIIBIjANBgkqhkiG9w0BAQEFAAOC
AQ8AMIIBCgKCAQEA2Xr4ickIP9/Jwtc5sxJhpNIWKSYtSsiPhOXe0zo7R3ycNi29
gTcM7PuFFzXFOmqL0KPz6vHSL/GVGG5n0mG/fCtEEUcyJveEzb7PRftYo6cYz+pr
oU0TmLlNoegFk+DotlPopFCia4IakafdzeYeisXn6rr1yyIiC4yW9hSYfNG/xyt0
MH61aPL6PbaJ7oJ+HdNTa7cXrDfaaqW71oo9/iAgKTiUsylH7Vctf7rQG0KwknRb
Tqc4LSi1a9iwm2tkZc6z2LMopSkKDaS1+rCaPsgA3VQ+Q+Ijjt7cIbtRF1isxGWA
tZpdnkJxirWrc/0Xtheqvh8Sdfv3INooL/Ao7QIDAQABo1AwTjAdBgNVHQ4EFgQU
j4VB0cv9z/1wXcFVdADmxGMn5wMwHwYDVR0jBBgwFoAUOPMutTRDUxqquDMGiOCp
mMPv4IAwDAYDVR0TBAUwAwEB/zANBgkqhkiG9w0BAQsFAAOCAQEANibYH1woU9rk
yiu9H8lTpRWHMsZ3AvBfCYITftScbEpMSVF21K8ekeZv96Eg5uY/9qEq41CuYpsQ
q/xTVIT57BcjIdLRujb/6/ZHDOZxBVgmNvroUB0YabRtQIm61MLCfiBcrSo22WgO
4jAWBx9qnKui+inrQFO58euZqX76tVXrMDIqfrvY1mvcMIAiFnTDj8cdWjSzUVr0
q7iO8WVvzmFhtwBopTEyJOHS8Eior9bo/oMKyEQpSW1EQzYv5IBr3TMbEeDsrDH2
uVBEqfjf4JdJMIJm9OTFhehLLGqRjRctjjyde9eoRqX1Hkw7qXNtz7WFcytsUbCA
598SA0z2mg==
-----END CERTIFICATE-----
Certificate:
    Data:
        Version: 3 (0x2)
        Serial Number:
            c7:50:84:b9:5b:c6:f6:8e
    Signature Algorithm: sha256WithRSAEncryption
        Issuer: C=CN, ST=HB, L=WH, O=mine, OU=net, CN=ca.mine.com/emailAddress=c@163.com
        Validity
            Not Before: Jul 29 14:42:38 2019 GMT
            Not After : Jul 28 14:42:38 2020 GMT
        Subject: C=CN, ST=HB, L=WH, O=mine, OU=net, CN=ca.mine.com/emailAddress=c@163.com
        Subject Public Key Info:
            Public Key Algorithm: rsaEncryption
                Public-Key: (2048 bit)
                Modulus:
                    00:c4:25:b9:36:fd:19:13:43:48:23:2b:a7:8c:a5:
                    39:48:59:a8:b0:8b:a4:52:e5:94:49:a6:b6:09:11:
                    b9:ed:3d:91:69:37:70:64:f9:50:d7:12:f6:04:8a:
                    c6:2c:42:a1:f7:0b:5d:b4:6b:88:36:56:77:cf:e1:
                    04:d3:41:13:93:2f:79:7b:16:5a:58:a4:fd:40:72:
                    90:93:5a:05:cf:52:97:1b:87:45:a6:f5:ce:8b:05:
                    37:93:6a:d2:ef:9d:fe:55:38:60:42:c3:7a:98:d7:
                    f0:79:af:cf:63:fd:84:29:e8:33:96:42:a6:91:f1:
                    74:07:28:01:c1:26:b9:e3:44:df:9f:1d:ba:b7:19:
                    b2:e0:da:7a:e3:c4:28:75:61:cb:c4:33:47:c2:f8:
                    88:93:8c:cb:fc:ba:92:02:d0:31:43:c5:6e:92:ae:
                    01:23:1d:98:87:4a:c2:7d:09:fb:b4:78:1a:cd:80:
                    e6:42:7a:0e:62:e3:85:9d:41:db:fb:5f:a0:09:da:
                    9c:6b:c7:9c:36:34:3e:41:0e:05:f0:b2:b8:80:12:
                    a7:10:03:1d:6b:cc:81:69:28:6b:8d:e9:19:d7:40:
                    1d:da:f1:ff:bc:71:d6:fe:fa:e5:ee:5c:91:5b:dc:
                    f8:86:3a:f4:da:fc:23:8c:d5:d6:c3:7e:9f:ff:13:
                    e0:2d
                Exponent: 65537 (0x10001)
        X509v3 extensions:
            X509v3 Subject Key Identifier: 
                38:F3:2E:B5:34:43:53:1A:AA:B8:33:06:88:E0:A9:98:C3:EF:E0:80
            X509v3 Authority Key Identifier: 
                keyid:38:F3:2E:B5:34:43:53:1A:AA:B8:33:06:88:E0:A9:98:C3:EF:E0:80

            X509v3 Basic Constraints: 
                CA:TRUE
    Signature Algorithm: sha256WithRSAEncryption
         55:d5:4c:4b:7e:95:9f:f1:53:e0:17:70:7e:a0:76:fa:23:c2:
         b9:93:91:67:38:0d:6f:bd:55:95:ea:9a:7b:22:bd:27:7e:e3:
         47:2c:7a:a7:fa:db:d8:40:1f:43:d8:ed:d0:51:02:78:5f:55:
         d9:21:39:38:a7:19:e0:63:bb:0c:48:c0:3c:5c:81:2c:39:ff:
         ab:62:5e:1a:78:88:b9:1a:af:d2:99:d5:8d:ac:53:9b:81:0d:
         09:f7:04:a5:e3:28:e2:f9:af:ab:66:cf:1c:9c:d5:86:25:f5:
         eb:71:3a:02:27:48:c2:4f:3d:f7:51:e4:ba:1f:eb:26:fe:bf:
         c5:17:14:df:8d:b4:57:71:50:27:41:f1:e1:14:29:2c:d2:1a:
         69:60:c3:bd:6d:85:d1:4b:3f:33:cb:ee:89:ff:8e:1f:7d:c8:
         03:6f:21:d5:09:17:c4:fd:24:4e:44:2c:82:52:26:5e:b9:cb:
         b2:14:59:42:2f:d9:de:75:69:ec:97:7f:a8:e4:a9:41:29:b5:
         74:b8:c4:6d:18:bf:36:fa:80:78:68:8d:c6:27:21:37:8f:fb:
         cc:62:ad:96:7e:0e:51:36:f3:7c:34:a0:03:70:14:2b:51:12:
         2d:5b:0b:b3:4a:e6:01:bf:b9:40:11:05:12:04:03:e7:a3:85:
         14:44:7c:43
-----BEGIN CERTIFICATE-----
MIIDuzCCAqOgAwIBAgIJAMdQhLlbxvaOMA0GCSqGSIb3DQEBCwUAMHQxCzAJBgNV
BAYTAkNOMQswCQYDVQQIDAJIQjELMAkGA1UEBwwCV0gxDTALBgNVBAoMBG1pbmUx
DDAKBgNVBAsMA25ldDEUMBIGA1UEAwwLY2EubWluZS5jb20xGDAWBgkqhkiG9w0B
CQEWCWNAMTYzLmNvbTAeFw0xOTA3MjkxNDQyMzhaFw0yMDA3MjgxNDQyMzhaMHQx
CzAJBgNVBAYTAkNOMQswCQYDVQQIDAJIQjELMAkGA1UEBwwCV0gxDTALBgNVBAoM
BG1pbmUxDDAKBgNVBAsMA25ldDEUMBIGA1UEAwwLY2EubWluZS5jb20xGDAWBgkq
hkiG9w0BCQEWCWNAMTYzLmNvbTCCASIwDQYJKoZIhvcNAQEBBQADggEPADCCAQoC
ggEBAMQluTb9GRNDSCMrp4ylOUhZqLCLpFLllEmmtgkRue09kWk3cGT5UNcS9gSK
xixCofcLXbRriDZWd8/hBNNBE5MveXsWWlik/UBykJNaBc9SlxuHRab1zosFN5Nq
0u+d/lU4YELDepjX8Hmvz2P9hCnoM5ZCppHxdAcoAcEmueNE358durcZsuDaeuPE
KHVhy8QzR8L4iJOMy/y6kgLQMUPFbpKuASMdmIdKwn0J+7R4Gs2A5kJ6DmLjhZ1B
2/tfoAnanGvHnDY0PkEOBfCyuIASpxADHWvMgWkoa43pGddAHdrx/7xx1v765e5c
kVvc+IY69Nr8I4zV1sN+n/8T4C0CAwEAAaNQME4wHQYDVR0OBBYEFDjzLrU0Q1Ma
qrgzBojgqZjD7+CAMB8GA1UdIwQYMBaAFDjzLrU0Q1MaqrgzBojgqZjD7+CAMAwG
A1UdEwQFMAMBAf8wDQYJKoZIhvcNAQELBQADggEBAFXVTEt+lZ/xU+AXcH6gdvoj
wrmTkWc4DW+9VZXqmnsivSd+40cseqf629hAH0PY7dBRAnhfVdkhOTinGeBjuwxI
wDxcgSw5/6tiXhp4iLkar9KZ1Y2sU5uBDQn3BKXjKOL5r6tmzxyc1YYl9etxOgIn
SMJPPfdR5Lof6yb+v8UXFN+NtFdxUCdB8eEUKSzSGmlgw71thdFLPzPL7on/jh99
yANvIdUJF8T9JE5ELIJSJl65y7IUWUIv2d51aeyXf6jkqUEptXS4xG0Yvzb6gHho
jcYnITeP+8xirZZ+DlE283w0oANwFCtREi1bC7NK5gG/uUARBRIEA+ejhRREfEM=
-----END CERTIFICATE-----